target datalayout = "e-m:e-p270:32:32-p271:32:32-p272:64:64-i64:64-i128:128-f80:128-n8:16:32:64-S128"
target triple = "x86_64-pc-linux-gnu"

%class.LogTagSet = type { ptr, i64, [5 x i32], [4 x i8], %class.LogOutputList, %class.LogDecorators, ptr }
%class.LogOutputList = type <{ [6 x ptr], i32, [4 x i8] }>
%class.LogDecorators = type { i32 }
%class.GCLogPreciousHandle = type { %class.LogTargetHandle }
%class.LogTargetHandle = type { i32, ptr }
%class.XWorkersInitializeTask = type { %class.WorkerTask.base, i32, i32, %class.XConditionLock }
%class.WorkerTask.base = type <{ ptr, ptr, i32 }>
%class.XConditionLock = type { %class.PlatformMonitor }
%class.PlatformMonitor = type { %class.PlatformMutex, %union.pthread_cond_t }
%class.PlatformMutex = type { %union.pthread_mutex_t }
%union.pthread_mutex_t = type { %struct.__pthread_mutex_s }
%struct.__pthread_mutex_s = type { i32, i32, i32, i32, i32, i16, i16, %struct.__pthread_internal_list }
%struct.__pthread_internal_list = type { ptr, ptr }
%union.pthread_cond_t = type { %struct.__pthread_cond_s }
%struct.__pthread_cond_s = type { %union.__atomic_wide_counter, %union.__atomic_wide_counter, [2 x i32], [2 x i32], i32, i32, [2 x i32] }
%union.__atomic_wide_counter = type { i64 }
%class.XWorkers = type { %class.WorkerThreads }
%class.WorkerThreads = type { ptr, ptr, ptr, i32, i32, i32, %class.WorkerTaskDispatcher }
%class.WorkerTaskDispatcher = type { ptr, i32, i32, %class.Semaphore, %class.Semaphore }
%class.Semaphore = type { %class.PosixSemaphore }
%class.PosixSemaphore = type { %union.sem_t }
%union.sem_t = type { i64, [24 x i8] }
%class.LogTargetImpl = type { i8 }
%class.WorkerTask = type <{ ptr, ptr, i32, [4 x i8] }>

@.str = private unnamed_addr constant [8 x i8] c"XWorker\00", align 1
@UseDynamicNumberOfGCThreads = external global i8, align 1
@ConcGCThreads = external global i32, align 4
@ParallelGCThreads = external global i32, align 4
@.str.4 = private unnamed_addr constant [25 x i8] c"GC Workers: %u (dynamic)\00", align 1
@.str.5 = private unnamed_addr constant [27 x i8] c"GC Workers: %u/%u (static)\00", align 1
@.str.6 = private unnamed_addr constant [26 x i8] c"Failed to create XWorkers\00", align 1
@_ZN16LogTagSetMappingILN6LogTag4typeE49ELS1_58ELS1_0ELS1_0ELS1_0ELS1_0EE7_tagsetE = linkonce_odr hidden global %class.LogTagSet zeroinitializer, comdat, align 8
@.str.11 = private unnamed_addr constant [23 x i8] c"XWorkersInitializeTask\00", align 1
@_ZTV22XWorkersInitializeTask = linkonce_odr hidden unnamed_addr constant { [3 x ptr] } { [3 x ptr] [ptr null, ptr null, ptr @_ZN22XWorkersInitializeTask4workEj] }, comdat, align 8
@_ZTV10WorkerTask = linkonce_odr hidden unnamed_addr constant { [3 x ptr] } { [3 x ptr] [ptr null, ptr null, ptr @__cxa_pure_virtual] }, comdat, align 8

; Function Attrs: mustprogress nounwind uwtable
define linkonce_odr hidden noundef nonnull align 8 dereferenceable(112) ptr @_ZN16LogTagSetMappingILN6LogTag4typeE49ELS1_58ELS1_0ELS1_0ELS1_0ELS1_0EE6tagsetEv() #1 comdat align 2 {
  ret ptr @_ZN16LogTagSetMappingILN6LogTag4typeE49ELS1_58ELS1_0ELS1_0ELS1_0ELS1_0EE7_tagsetE
}

; Function Attrs: mustprogress nounwind uwtable
define linkonce_odr hidden void @_ZN14XConditionLockD2Ev(ptr noundef nonnull align 8 dereferenceable(88) %0) unnamed_addr #1 comdat align 2 {
  %2 = alloca ptr, align 8
  store ptr %0, ptr %2, align 8
  %3 = load ptr, ptr %2, align 8
  %4 = getelementptr inbounds %class.XConditionLock, ptr %3, i32 0, i32 0
  call void @_ZN15PlatformMonitorD1Ev(ptr noundef nonnull align 8 dereferenceable(88) %4) #7
  ret void
}

; Function Attrs: mustprogress nounwind uwtable
define linkonce_odr hidden void @_ZN14XConditionLockC2Ev(ptr noundef nonnull align 8 dereferenceable(88) %0) unnamed_addr #1 comdat align 2 {
  %2 = alloca ptr, align 8
  store ptr %0, ptr %2, align 8
  %3 = load ptr, ptr %2, align 8
  %4 = getelementptr inbounds %class.XConditionLock, ptr %3, i32 0, i32 0
  call void @_ZN15PlatformMonitorC1Ev(ptr noundef nonnull align 8 dereferenceable(88) %4)
  ret void
}

; Function Attrs: mustprogress nounwind uwtable
define linkonce_odr hidden void @_ZN10WorkerTaskC2EPKc(ptr noundef nonnull align 8 dereferenceable(20) %0, ptr noundef %1) unnamed_addr #1 comdat align 2 {
  %3 = alloca ptr, align 8
  %4 = alloca ptr, align 8
  store ptr %0, ptr %3, align 8
  store ptr %1, ptr %4, align 8
  %5 = load ptr, ptr %3, align 8
  store ptr getelementptr inbounds inrange(-16, 8) ({ [3 x ptr] }, ptr @_ZTV10WorkerTask, i32 0, i32 0, i32 2), ptr %5, align 8
  %6 = getelementptr inbounds %class.WorkerTask, ptr %5, i32 0, i32 1
  %7 = load ptr, ptr %4, align 8
  store ptr %7, ptr %6, align 8
  %8 = getelementptr inbounds %class.WorkerTask, ptr %5, i32 0, i32 2
  %9 = call noundef i32 @_ZN4GCId20current_or_undefinedEv()
  store i32 %9, ptr %8, align 8
  ret void
}

; Function Attrs: mustprogress nounwind uwtable
define linkonce_odr hidden void @_ZN15LogTargetHandleC2ILN8LogLevel4typeE3ELN6LogTag4typeE49ELS4_58ELS4_0ELS4_0ELS4_0ELS4_0EEERK13LogTargetImplIXT_EXT0_EXT1_EXT2_EXT3_EXT4_EXT5_EE(ptr noundef nonnull align 8 dereferenceable(16) %0, ptr noundef nonnull align 1 dereferenceable(1) %1) unnamed_addr #1 comdat align 2 {
  %3 = alloca ptr, align 8
  %4 = alloca ptr, align 8
  store ptr %0, ptr %3, align 8
  store ptr %1, ptr %4, align 8
  %5 = load ptr, ptr %3, align 8
  %6 = getelementptr inbounds %class.LogTargetHandle, ptr %5, i32 0, i32 0
  store i32 3, ptr %6, align 8
  %7 = getelementptr inbounds %class.LogTargetHandle, ptr %5, i32 0, i32 1
  %8 = call noundef nonnull align 8 dereferenceable(112) ptr @_ZN16LogTagSetMappingILN6LogTag4typeE49ELS1_58ELS1_0ELS1_0ELS1_0ELS1_0EE6tagsetEv()
  store ptr %8, ptr %7, align 8
  ret void
}

; Function Attrs: mustprogress nounwind uwtable
define linkonce_odr hidden void @_ZN13LogTargetImplILN8LogLevel4typeE3ELN6LogTag4typeE49ELS3_58ELS3_0ELS3_0ELS3_0ELS3_0EEC2Ev(ptr noundef nonnull align 1 dereferenceable(1) %0) unnamed_addr #1 comdat align 2 {
  %2 = alloca ptr, align 8
  store ptr %0, ptr %2, align 8
  ret void
}

; Function Attrs: mustprogress nounwind uwtable
define linkonce_odr hidden void @_ZN22XWorkersInitializeTaskD2Ev(ptr noundef nonnull align 8 dereferenceable(120) %0) unnamed_addr #1 comdat align 2 {
  %2 = alloca ptr, align 8
  store ptr %0, ptr %2, align 8
  %3 = load ptr, ptr %2, align 8
  store ptr getelementptr inbounds inrange(-16, 8) ({ [3 x ptr] }, ptr @_ZTV22XWorkersInitializeTask, i32 0, i32 0, i32 2), ptr %3, align 8
  %4 = getelementptr inbounds %class.XWorkersInitializeTask, ptr %3, i32 0, i32 3
  call void @_ZN14XConditionLockD2Ev(ptr noundef nonnull align 8 dereferenceable(88) %4) #7
  ret void
}

; Function Attrs: mustprogress nounwind uwtable
define linkonce_odr hidden void @_ZN22XWorkersInitializeTaskC2Ej(ptr noundef nonnull align 8 dereferenceable(120) %0, i32 noundef %1) unnamed_addr #1 comdat align 2 {
  %3 = alloca ptr, align 8
  %4 = alloca i32, align 4
  store ptr %0, ptr %3, align 8
  store i32 %1, ptr %4, align 4
  %5 = load ptr, ptr %3, align 8
  call void @_ZN10WorkerTaskC2EPKc(ptr noundef nonnull align 8 dereferenceable(20) %5, ptr noundef @.str.11)
  store ptr getelementptr inbounds inrange(-16, 8) ({ [3 x ptr] }, ptr @_ZTV22XWorkersInitializeTask, i32 0, i32 0, i32 2), ptr %5, align 8
  %6 = getelementptr inbounds %class.XWorkersInitializeTask, ptr %5, i32 0, i32 1
  %7 = load i32, ptr %4, align 4
  store i32 %7, ptr %6, align 4
  %8 = getelementptr inbounds %class.XWorkersInitializeTask, ptr %5, i32 0, i32 2
  store i32 0, ptr %8, align 8
  %9 = getelementptr inbounds %class.XWorkersInitializeTask, ptr %5, i32 0, i32 3
  call void @llvm.memset.p0.i64(ptr align 8 %9, i8 0, i64 88, i1 false)
  call void @_ZN14XConditionLockC2Ev(ptr noundef nonnull align 8 dereferenceable(88) %9)
  ret void
}

; Function Attrs: mustprogress nounwind uwtable
define linkonce_odr hidden noundef i32 @_ZNK13WorkerThreads14active_workersEv(ptr noundef nonnull align 8 dereferenceable(120) %0) #1 comdat align 2 {
  %2 = alloca ptr, align 8
  store ptr %0, ptr %2, align 8
  %3 = load ptr, ptr %2, align 8
  %4 = getelementptr inbounds %class.WorkerThreads, ptr %3, i32 0, i32 5
  %5 = load i32, ptr %4, align 8
  ret i32 %5
}

; Function Attrs: mustprogress nounwind uwtable
define linkonce_odr hidden noundef i32 @_ZNK13WorkerThreads11max_workersEv(ptr noundef nonnull align 8 dereferenceable(120) %0) #1 comdat align 2 {
  %2 = alloca ptr, align 8
  store ptr %0, ptr %2, align 8
  %3 = load ptr, ptr %2, align 8
  %4 = getelementptr inbounds %class.WorkerThreads, ptr %3, i32 0, i32 3
  %5 = load i32, ptr %4, align 8
  ret i32 %5
}

; Function Attrs: mustprogress nounwind uwtable
define linkonce_odr hidden void @_ZN19GCLogPreciousHandleC2E15LogTargetHandle(ptr noundef nonnull align 8 dereferenceable(16) %0, i32 %1, ptr %2) unnamed_addr #1 comdat align 2 {
  %4 = alloca %class.LogTargetHandle, align 8
  %5 = alloca ptr, align 8
  %6 = getelementptr inbounds { i32, ptr }, ptr %4, i32 0, i32 0
  store i32 %1, ptr %6, align 8
  %7 = getelementptr inbounds { i32, ptr }, ptr %4, i32 0, i32 1
  store ptr %2, ptr %7, align 8
  store ptr %0, ptr %5, align 8
  %8 = load ptr, ptr %5, align 8
  %9 = getelementptr inbounds %class.GCLogPreciousHandle, ptr %8, i32 0, i32 0
  call void @llvm.memcpy.p0.p0.i64(ptr align 8 %9, ptr align 8 %4, i64 16, i1 false)
  ret void
}

; Function Attrs: mustprogress nounwind uwtable
define linkonce_odr hidden { i32, ptr } @_ZN15LogTargetHandle6createILN8LogLevel4typeE3ELN6LogTag4typeE49ELS4_58ELS4_0ELS4_0ELS4_0ELS4_0EEES_v() #1 comdat align 2 {
  %1 = alloca %class.LogTargetHandle, align 8
  %2 = alloca %class.LogTargetImpl, align 1
  call void @_ZN13LogTargetImplILN8LogLevel4typeE3ELN6LogTag4typeE49ELS3_58ELS3_0ELS3_0ELS3_0ELS3_0EEC2Ev(ptr noundef nonnull align 1 dereferenceable(1) %2)
  call void @_ZN15LogTargetHandleC2ILN8LogLevel4typeE3ELN6LogTag4typeE49ELS4_58ELS4_0ELS4_0ELS4_0ELS4_0EEERK13LogTargetImplIXT_EXT0_EXT1_EXT2_EXT3_EXT4_EXT5_EE(ptr noundef nonnull align 8 dereferenceable(16) %1, ptr noundef nonnull align 1 dereferenceable(1) %2)
  %3 = load { i32, ptr }, ptr %1, align 8
  ret { i32, ptr } %3
}

; Function Attrs: mustprogress nounwind uwtable
define linkonce_odr hidden noundef i32 @_Z4MAX2IjET_S0_S0_(i32 noundef %0, i32 noundef %1) #1 comdat {
  %3 = alloca i32, align 4
  %4 = alloca i32, align 4
  store i32 %0, ptr %3, align 4
  store i32 %1, ptr %4, align 4
  %5 = load i32, ptr %3, align 4
  %6 = load i32, ptr %4, align 4
  %7 = icmp ugt i32 %5, %6
  br i1 %7, label %8, label %10

8:                                                ; preds = %2
  %9 = load i32, ptr %3, align 4
  br label %12

10:                                               ; preds = %2
  %11 = load i32, ptr %4, align 4
  br label %12

12:                                               ; preds = %10, %8
  %13 = phi i32 [ %9, %8 ], [ %11, %10 ]
  ret i32 %13
}

; Function Attrs: mustprogress nounwind uwtable
define hidden void @_ZN8XWorkersC2Ev(ptr noundef nonnull align 8 dereferenceable(120) %0) unnamed_addr #1 align 2 {
  %2 = alloca ptr, align 8
  %3 = alloca %class.GCLogPreciousHandle, align 8
  %4 = alloca %class.LogTargetHandle, align 8
  %5 = alloca %class.GCLogPreciousHandle, align 8
  %6 = alloca %class.LogTargetHandle, align 8
  %7 = alloca %class.XWorkersInitializeTask, align 8
  store ptr %0, ptr %2, align 8
  %8 = load ptr, ptr %2, align 8
  %9 = getelementptr inbounds %class.XWorkers, ptr %8, i32 0, i32 0
  %10 = load i8, ptr @UseDynamicNumberOfGCThreads, align 1
  %11 = trunc i8 %10 to i1
  br i1 %11, label %12, label %14

12:                                               ; preds = %1
  %13 = load i32, ptr @ConcGCThreads, align 4
  br label %18

14:                                               ; preds = %1
  %15 = load i32, ptr @ConcGCThreads, align 4
  %16 = load i32, ptr @ParallelGCThreads, align 4
  %17 = call noundef i32 @_Z4MAX2IjET_S0_S0_(i32 noundef %15, i32 noundef %16)
  br label %18

18:                                               ; preds = %14, %12
  %19 = phi i32 [ %13, %12 ], [ %17, %14 ]
  call void @_ZN13WorkerThreadsC1EPKcj(ptr noundef nonnull align 8 dereferenceable(120) %9, ptr noundef @.str, i32 noundef %19)
  %20 = load i8, ptr @UseDynamicNumberOfGCThreads, align 1
  %21 = trunc i8 %20 to i1
  br i1 %21, label %22, label %34

22:                                               ; preds = %18
  %23 = call { i32, ptr } @_ZN15LogTargetHandle6createILN8LogLevel4typeE3ELN6LogTag4typeE49ELS4_58ELS4_0ELS4_0ELS4_0ELS4_0EEES_v()
  %24 = getelementptr inbounds { i32, ptr }, ptr %4, i32 0, i32 0
  %25 = extractvalue { i32, ptr } %23, 0
  store i32 %25, ptr %24, align 8
  %26 = getelementptr inbounds { i32, ptr }, ptr %4, i32 0, i32 1
  %27 = extractvalue { i32, ptr } %23, 1
  store ptr %27, ptr %26, align 8
  %28 = getelementptr inbounds { i32, ptr }, ptr %4, i32 0, i32 0
  %29 = load i32, ptr %28, align 8
  %30 = getelementptr inbounds { i32, ptr }, ptr %4, i32 0, i32 1
  %31 = load ptr, ptr %30, align 8
  call void @_ZN19GCLogPreciousHandleC2E15LogTargetHandle(ptr noundef nonnull align 8 dereferenceable(16) %3, i32 %29, ptr %31)
  %32 = getelementptr inbounds %class.XWorkers, ptr %8, i32 0, i32 0
  %33 = call noundef i32 @_ZNK13WorkerThreads11max_workersEv(ptr noundef nonnull align 8 dereferenceable(120) %32)
  call void (ptr, ptr, ...) @_ZN19GCLogPreciousHandle5writeEPKcz(ptr noundef nonnull align 8 dereferenceable(16) %3, ptr noundef @.str.4, i32 noundef %33)
  br label %47

34:                                               ; preds = %18
  %35 = call { i32, ptr } @_ZN15LogTargetHandle6createILN8LogLevel4typeE3ELN6LogTag4typeE49ELS4_58ELS4_0ELS4_0ELS4_0ELS4_0EEES_v()
  %36 = getelementptr inbounds { i32, ptr }, ptr %6, i32 0, i32 0
  %37 = extractvalue { i32, ptr } %35, 0
  store i32 %37, ptr %36, align 8
  %38 = getelementptr inbounds { i32, ptr }, ptr %6, i32 0, i32 1
  %39 = extractvalue { i32, ptr } %35, 1
  store ptr %39, ptr %38, align 8
  %40 = getelementptr inbounds { i32, ptr }, ptr %6, i32 0, i32 0
  %41 = load i32, ptr %40, align 8
  %42 = getelementptr inbounds { i32, ptr }, ptr %6, i32 0, i32 1
  %43 = load ptr, ptr %42, align 8
  call void @_ZN19GCLogPreciousHandleC2E15LogTargetHandle(ptr noundef nonnull align 8 dereferenceable(16) %5, i32 %41, ptr %43)
  %44 = load i32, ptr @ConcGCThreads, align 4
  %45 = getelementptr inbounds %class.XWorkers, ptr %8, i32 0, i32 0
  %46 = call noundef i32 @_ZNK13WorkerThreads11max_workersEv(ptr noundef nonnull align 8 dereferenceable(120) %45)
  call void (ptr, ptr, ...) @_ZN19GCLogPreciousHandle5writeEPKcz(ptr noundef nonnull align 8 dereferenceable(16) %5, ptr noundef @.str.5, i32 noundef %44, i32 noundef %46)
  br label %47

47:                                               ; preds = %34, %22
  %48 = getelementptr inbounds %class.XWorkers, ptr %8, i32 0, i32 0
  call void @_ZN13WorkerThreads18initialize_workersEv(ptr noundef nonnull align 8 dereferenceable(120) %48)
  %49 = getelementptr inbounds %class.XWorkers, ptr %8, i32 0, i32 0
  %50 = getelementptr inbounds %class.XWorkers, ptr %8, i32 0, i32 0
  %51 = call noundef i32 @_ZNK13WorkerThreads11max_workersEv(ptr noundef nonnull align 8 dereferenceable(120) %50)
  %52 = call noundef i32 @_ZN13WorkerThreads18set_active_workersEj(ptr noundef nonnull align 8 dereferenceable(120) %49, i32 noundef %51)
  %53 = getelementptr inbounds %class.XWorkers, ptr %8, i32 0, i32 0
  %54 = call noundef i32 @_ZNK13WorkerThreads14active_workersEv(ptr noundef nonnull align 8 dereferenceable(120) %53)
  %55 = getelementptr inbounds %class.XWorkers, ptr %8, i32 0, i32 0
  %56 = call noundef i32 @_ZNK13WorkerThreads11max_workersEv(ptr noundef nonnull align 8 dereferenceable(120) %55)
  %57 = icmp ne i32 %54, %56
  br i1 %57, label %58, label %59

58:                                               ; preds = %47
  call void @_Z29vm_exit_during_initializationPKcS0_(ptr noundef @.str.6, ptr noundef null)
  br label %59

59:                                               ; preds = %58, %47
  %60 = getelementptr inbounds %class.XWorkers, ptr %8, i32 0, i32 0
  %61 = call noundef i32 @_ZNK13WorkerThreads11max_workersEv(ptr noundef nonnull align 8 dereferenceable(120) %60)
  call void @_ZN22XWorkersInitializeTaskC2Ej(ptr noundef nonnull align 8 dereferenceable(120) %7, i32 noundef %61)
  %62 = getelementptr inbounds %class.XWorkers, ptr %8, i32 0, i32 0
  call void @_ZN13WorkerThreads8run_taskEP10WorkerTask(ptr noundef nonnull align 8 dereferenceable(120) %62, ptr noundef %7)
  call void @_ZN22XWorkersInitializeTaskD2Ev(ptr noundef nonnull align 8 dereferenceable(120) %7) #7
  ret void
}