; Function Attrs: mustprogress nounwind uwtable
define hidden void @_ZN8XWorkersC2Ev(ptr noundef nonnull align 8 dereferenceable(120) %0) unnamed_addr #0 align 2 {
  %2 = alloca %class.GCLogPreciousHandle, align 8
  %3 = alloca %class.GCLogPreciousHandle, align 8
  %4 = alloca %class.XWorkersInitializeTask, align 8
  %5 = load i8, ptr @UseDynamicNumberOfGCThreads, align 1
  %6 = trunc i8 %5 to i1
  %7 = load i32, ptr @ConcGCThreads, align 4
  %8 = load i32, ptr @ParallelGCThreads, align 4
  %9 = tail call i32 @llvm.umax.i32(i32 %7, i32 %8)
  %10 = select i1 %6, i32 %7, i32 %9
  tail call void @_ZN13WorkerThreadsC1EPKcj(ptr noundef nonnull align 8 dereferenceable(120) %0, ptr noundef nonnull @.str, i32 noundef %10) #8
  %11 = load i8, ptr @UseDynamicNumberOfGCThreads, align 1
  %12 = trunc i8 %11 to i1
  br i1 %12, label %13, label %16

13:                                               ; preds = %1
  store i32 3, ptr %2, align 8
  %.sroa.21.0..sroa_idx.i = getelementptr inbounds i8, ptr %2, i64 8
  store ptr @_ZN16LogTagSetMappingILN6LogTag4typeE49ELS1_58ELS1_0ELS1_0ELS1_0ELS1_0EE7_tagsetE, ptr %.sroa.21.0..sroa_idx.i, align 8
  %14 = getelementptr inbounds i8, ptr %0, i64 24
  %15 = load i32, ptr %14, align 8
  call void (ptr, ptr, ...) @_ZN19GCLogPreciousHandle5writeEPKcz(ptr noundef nonnull align 8 dereferenceable(16) %2, ptr noundef nonnull @.str.4, i32 noundef %15)
  br label %20

16:                                               ; preds = %1
  store i32 3, ptr %3, align 8
  %.sroa.21.0..sroa_idx.i3 = getelementptr inbounds i8, ptr %3, i64 8
  store ptr @_ZN16LogTagSetMappingILN6LogTag4typeE49ELS1_58ELS1_0ELS1_0ELS1_0ELS1_0EE7_tagsetE, ptr %.sroa.21.0..sroa_idx.i3, align 8
  %17 = load i32, ptr @ConcGCThreads, align 4
  %18 = getelementptr inbounds i8, ptr %0, i64 24
  %19 = load i32, ptr %18, align 8
  call void (ptr, ptr, ...) @_ZN19GCLogPreciousHandle5writeEPKcz(ptr noundef nonnull align 8 dereferenceable(16) %3, ptr noundef nonnull @.str.5, i32 noundef %17, i32 noundef %19)
  br label %20

20:                                               ; preds = %16, %13
  call void @_ZN13WorkerThreads18initialize_workersEv(ptr noundef nonnull align 8 dereferenceable(120) %0) #8
  %21 = getelementptr inbounds i8, ptr %0, i64 24
  %22 = load i32, ptr %21, align 8
  %23 = call noundef i32 @_ZN13WorkerThreads18set_active_workersEj(ptr noundef nonnull align 8 dereferenceable(120) %0, i32 noundef %22) #8
  %24 = getelementptr inbounds i8, ptr %0, i64 32
  %25 = load i32, ptr %24, align 8
  %26 = load i32, ptr %21, align 8
  %.not = icmp eq i32 %25, %26
  br i1 %.not, label %28, label %27

27:                                               ; preds = %20
  call void @_Z29vm_exit_during_initializationPKcS0_(ptr noundef nonnull @.str.6, ptr noundef null) #8
  %.pre = load i32, ptr %21, align 8
  br label %28

28:                                               ; preds = %27, %20
  %29 = phi i32 [ %.pre, %27 ], [ %25, %20 ]
  %30 = getelementptr inbounds i8, ptr %4, i64 8
  store ptr @.str.11, ptr %30, align 8
  %31 = getelementptr inbounds i8, ptr %4, i64 16
  %32 = call noundef i32 @_ZN4GCId20current_or_undefinedEv() #8
  store i32 %32, ptr %31, align 8
  store ptr getelementptr inbounds inrange(-16, 8) (i8, ptr @_ZTV22XWorkersInitializeTask, i64 16), ptr %4, align 8
  %33 = getelementptr inbounds i8, ptr %4, i64 20
  store i32 %29, ptr %33, align 4
  %34 = getelementptr inbounds i8, ptr %4, i64 24
  store i32 0, ptr %34, align 8
  %35 = getelementptr inbounds i8, ptr %4, i64 32
  call void @llvm.memset.p0.i64(ptr noundef nonnull align 8 dereferenceable(88) %35, i8 0, i64 88, i1 false)
  call void @_ZN15PlatformMonitorC1Ev(ptr noundef nonnull align 8 dereferenceable(88) %35) #8
  call void @_ZN13WorkerThreads8run_taskEP10WorkerTask(ptr noundef nonnull align 8 dereferenceable(120) %0, ptr noundef nonnull %4) #8
  store ptr getelementptr inbounds inrange(-16, 8) (i8, ptr @_ZTV22XWorkersInitializeTask, i64 16), ptr %4, align 8
  call void @_ZN15PlatformMonitorD1Ev(ptr noundef nonnull align 8 dereferenceable(88) %35) #8
  ret void
}